target datalayout = "e-m:e-p270:32:32-p271:32:32-p272:64:64-i64:64-i128:128-f80:128-n8:16:32:64-S128"
target triple = "x86_64-pc-linux-gnu"

%"class.doctest::String" = type { %union.anon.7 }
%union.anon.7 = type { %"struct.doctest::String::view", [8 x i8] }
%"struct.doctest::String::view" = type { ptr, i32, i32 }

@_ZN7doctest6StringC1EOS0_ = dso_local unnamed_addr alias void (ptr, ptr), ptr @_ZN7doctest6StringC2EOS0_

; Function Attrs: mustprogress nounwind uwtable
define dso_local void @_ZN7doctest6String7setLastEj(ptr noundef nonnull align 8 dereferenceable(24) %0, i32 noundef %1) #1 align 2 {
  %3 = alloca ptr, align 8
  %4 = alloca i32, align 4
  store ptr %0, ptr %3, align 8, !tbaa !59
  store i32 %1, ptr %4, align 4, !tbaa !4
  %5 = load ptr, ptr %3, align 8
  %6 = load i32, ptr %4, align 4, !tbaa !4
  %7 = trunc i32 %6 to i8
  %8 = getelementptr inbounds nuw %"class.doctest::String", ptr %5, i32 0, i32 0
  %9 = getelementptr inbounds nuw [24 x i8], ptr %8, i64 0, i64 23
  store i8 %7, ptr %9, align 1, !tbaa !55
  ret void
}

; Function Attrs: mustprogress nounwind uwtable
define linkonce_odr dso_local noundef zeroext i1 @_ZNK7doctest6String9isOnStackEv(ptr noundef nonnull align 8 dereferenceable(24) %0) #1 comdat align 2 {
  %2 = alloca ptr, align 8
  store ptr %0, ptr %2, align 8, !tbaa !59
  %3 = load ptr, ptr %2, align 8
  %4 = getelementptr inbounds nuw %"class.doctest::String", ptr %3, i32 0, i32 0
  %5 = getelementptr inbounds nuw [24 x i8], ptr %4, i64 0, i64 23
  %6 = load i8, ptr %5, align 1, !tbaa !55
  %7 = sext i8 %6 to i32
  %8 = and i32 %7, 128
  %9 = icmp eq i32 %8, 0
  ret i1 %9
}

; Function Attrs: mustprogress nounwind uwtable
define dso_local void @_ZN7doctest6String7setSizeEj(ptr noundef nonnull align 8 dereferenceable(24) %0, i32 noundef %1) #1 align 2 {
  %3 = alloca ptr, align 8
  %4 = alloca i32, align 4
  store ptr %0, ptr %3, align 8, !tbaa !59
  store i32 %1, ptr %4, align 4, !tbaa !4
  %5 = load ptr, ptr %3, align 8
  %6 = call noundef zeroext i1 @_ZNK7doctest6String9isOnStackEv(ptr noundef nonnull align 8 dereferenceable(24) %5) #7
  br i1 %6, label %7, label %14

7:                                                ; preds = %2
  %8 = getelementptr inbounds nuw %"class.doctest::String", ptr %5, i32 0, i32 0
  %9 = load i32, ptr %4, align 4, !tbaa !4
  %10 = zext i32 %9 to i64
  %11 = getelementptr inbounds nuw [24 x i8], ptr %8, i64 0, i64 %10
  store i8 0, ptr %11, align 1, !tbaa !55
  %12 = load i32, ptr %4, align 4, !tbaa !4
  %13 = sub i32 23, %12
  call void @_ZN7doctest6String7setLastEj(ptr noundef nonnull align 8 dereferenceable(24) %5, i32 noundef %13) #7
  br label %24

14:                                               ; preds = %2
  %15 = getelementptr inbounds nuw %"class.doctest::String", ptr %5, i32 0, i32 0
  %16 = getelementptr inbounds nuw %"struct.doctest::String::view", ptr %15, i32 0, i32 0
  %17 = load ptr, ptr %16, align 8, !tbaa !55
  %18 = load i32, ptr %4, align 4, !tbaa !4
  %19 = zext i32 %18 to i64
  %20 = getelementptr inbounds nuw i8, ptr %17, i64 %19
  store i8 0, ptr %20, align 1, !tbaa !55
  %21 = load i32, ptr %4, align 4, !tbaa !4
  %22 = getelementptr inbounds nuw %"class.doctest::String", ptr %5, i32 0, i32 0
  %23 = getelementptr inbounds nuw %"struct.doctest::String::view", ptr %22, i32 0, i32 1
  store i32 %21, ptr %23, align 8, !tbaa !55
  br label %24

24:                                               ; preds = %14, %7
  ret void
}

; Function Attrs: mustprogress nounwind uwtable
define linkonce_odr dso_local noundef ptr @_ZN7doctest6String5c_strEv(ptr noundef nonnull align 8 dereferenceable(24) %0) #1 comdat align 2 {
  %2 = alloca ptr, align 8
  %3 = alloca ptr, align 8
  store ptr %0, ptr %3, align 8, !tbaa !59
  %4 = load ptr, ptr %3, align 8
  %5 = call noundef zeroext i1 @_ZNK7doctest6String9isOnStackEv(ptr noundef nonnull align 8 dereferenceable(24) %4) #7
  br i1 %5, label %6, label %9

6:                                                ; preds = %1
  %7 = getelementptr inbounds nuw %"class.doctest::String", ptr %4, i32 0, i32 0
  %8 = getelementptr inbounds [24 x i8], ptr %7, i64 0, i64 0
  store ptr %8, ptr %2, align 8
  br label %13

9:                                                ; preds = %1
  %10 = getelementptr inbounds nuw %"class.doctest::String", ptr %4, i32 0, i32 0
  %11 = getelementptr inbounds nuw %"struct.doctest::String::view", ptr %10, i32 0, i32 0
  %12 = load ptr, ptr %11, align 8, !tbaa !55
  store ptr %12, ptr %2, align 8
  br label %13

13:                                               ; preds = %9, %6
  %14 = load ptr, ptr %2, align 8
  ret ptr %14
}

; Function Attrs: inlinehint mustprogress nounwind uwtable
define linkonce_odr dso_local noundef nonnull align 4 dereferenceable(4) ptr @_ZSt3minIjERKT_S2_S2_(ptr noundef nonnull align 4 dereferenceable(4) %0, ptr noundef nonnull align 4 dereferenceable(4) %1) #4 comdat {
  %3 = alloca ptr, align 8
  %4 = alloca ptr, align 8
  %5 = alloca ptr, align 8
  store ptr %0, ptr %4, align 8, !tbaa !8
  store ptr %1, ptr %5, align 8, !tbaa !8
  %6 = load ptr, ptr %5, align 8, !tbaa !8
  %7 = load i32, ptr %6, align 4, !tbaa !4
  %8 = load ptr, ptr %4, align 8, !tbaa !8
  %9 = load i32, ptr %8, align 4, !tbaa !4
  %10 = icmp ult i32 %7, %9
  br i1 %10, label %11, label %13

11:                                               ; preds = %2
  %12 = load ptr, ptr %5, align 8, !tbaa !8
  store ptr %12, ptr %3, align 8
  br label %15

13:                                               ; preds = %2
  %14 = load ptr, ptr %4, align 8, !tbaa !8
  store ptr %14, ptr %3, align 8
  br label %15

15:                                               ; preds = %13, %11
  %16 = load ptr, ptr %3, align 8
  ret ptr %16
}

; Function Attrs: mustprogress nounwind uwtable
define dso_local noundef i32 @_ZNK7doctest6String4sizeEv(ptr noundef nonnull align 8 dereferenceable(24) %0) #1 align 2 {
  %2 = alloca i32, align 4
  %3 = alloca ptr, align 8
  store ptr %0, ptr %3, align 8, !tbaa !59
  %4 = load ptr, ptr %3, align 8
  %5 = call noundef zeroext i1 @_ZNK7doctest6String9isOnStackEv(ptr noundef nonnull align 8 dereferenceable(24) %4) #7
  br i1 %5, label %6, label %13

6:                                                ; preds = %1
  %7 = getelementptr inbounds nuw %"class.doctest::String", ptr %4, i32 0, i32 0
  %8 = getelementptr inbounds nuw [24 x i8], ptr %7, i64 0, i64 23
  %9 = load i8, ptr %8, align 1, !tbaa !55
  %10 = sext i8 %9 to i32
  %11 = and i32 %10, 31
  %12 = sub i32 23, %11
  store i32 %12, ptr %2, align 4
  br label %17

13:                                               ; preds = %1
  %14 = getelementptr inbounds nuw %"class.doctest::String", ptr %4, i32 0, i32 0
  %15 = getelementptr inbounds nuw %"struct.doctest::String::view", ptr %14, i32 0, i32 1
  %16 = load i32, ptr %15, align 8, !tbaa !55
  store i32 %16, ptr %2, align 4
  br label %17

17:                                               ; preds = %13, %6
  %18 = load i32, ptr %2, align 4
  ret i32 %18
}

; Function Attrs: mustprogress uwtable
define dso_local void @_ZNO7doctest6String6substrEjj(ptr dead_on_unwind noalias writable sret(%"class.doctest::String") align 8 %0, ptr noundef nonnull align 8 dereferenceable(24) %1, i32 noundef %2, i32 noundef %3) #8 align 2 {
  %5 = alloca ptr, align 8
  %6 = alloca ptr, align 8
  %7 = alloca i32, align 4
  %8 = alloca i32, align 4
  %9 = alloca i32, align 4
  %10 = alloca ptr, align 8
  store ptr %0, ptr %5, align 8
  store ptr %1, ptr %6, align 8, !tbaa !59
  store i32 %2, ptr %7, align 4, !tbaa !4
  store i32 %3, ptr %8, align 4, !tbaa !4
  %11 = load ptr, ptr %6, align 8
  call void @llvm.lifetime.start.p0(i64 4, ptr %9) #7
  %12 = call noundef i32 @_ZNK7doctest6String4sizeEv(ptr noundef nonnull align 8 dereferenceable(24) %11)
  %13 = sub i32 %12, 1
  %14 = load i32, ptr %7, align 4, !tbaa !4
  %15 = sub i32 %13, %14
  store i32 %15, ptr %9, align 4, !tbaa !4
  %16 = call noundef nonnull align 4 dereferenceable(4) ptr @_ZSt3minIjERKT_S2_S2_(ptr noundef nonnull align 4 dereferenceable(4) %8, ptr noundef nonnull align 4 dereferenceable(4) %9)
  %17 = load i32, ptr %16, align 4, !tbaa !4
  store i32 %17, ptr %8, align 4, !tbaa !4
  call void @llvm.lifetime.end.p0(i64 4, ptr %9) #7
  call void @llvm.lifetime.start.p0(i64 8, ptr %10) #7
  %18 = call noundef ptr @_ZN7doctest6String5c_strEv(ptr noundef nonnull align 8 dereferenceable(24) %11)
  store ptr %18, ptr %10, align 8, !tbaa !14
  %19 = load ptr, ptr %10, align 8, !tbaa !14
  %20 = load ptr, ptr %10, align 8, !tbaa !14
  %21 = load i32, ptr %7, align 4, !tbaa !4
  %22 = zext i32 %21 to i64
  %23 = getelementptr inbounds nuw i8, ptr %20, i64 %22
  %24 = load i32, ptr %8, align 4, !tbaa !4
  %25 = zext i32 %24 to i64
  call void @llvm.memmove.p0.p0.i64(ptr align 1 %19, ptr align 1 %23, i64 %25, i1 false)
  %26 = load i32, ptr %8, align 4, !tbaa !4
  call void @_ZN7doctest6String7setSizeEj(ptr noundef nonnull align 8 dereferenceable(24) %11, i32 noundef %26) #7
  call void @_ZN7doctest6StringC1EOS0_(ptr noundef nonnull align 8 dereferenceable(24) %0, ptr noundef nonnull align 8 dereferenceable(24) %11) #7
  call void @llvm.lifetime.end.p0(i64 8, ptr %10) #7
  ret void
}