; Function Attrs: mustprogress nofree norecurse nosync nounwind willreturn memory(readwrite, inaccessiblemem: none) uwtable
define dso_local void @_ZNO7doctest6String6substrEjj(ptr dead_on_unwind noalias writable writeonly sret(%"class.doctest::String") align 8 captures(none) initializes((0, 24)) %0, ptr noundef nonnull align 8 captures(none) dereferenceable(24) %1, i32 noundef %2, i32 noundef %3) local_unnamed_addr #0 align 2 {
  %5 = getelementptr inbounds nuw i8, ptr %1, i64 23
  %6 = load i8, ptr %5, align 1, !tbaa !38
  %7 = and i8 %6, 31
  %8 = zext nneg i8 %7 to i32
  %9 = sub nsw i32 23, %8
  %10 = getelementptr inbounds nuw i8, ptr %1, i64 8
  %11 = load i32, ptr %10, align 8
  %12 = icmp slt i8 %6, 0
  %.0.i = select i1 %12, i32 %11, i32 %9
  %13 = xor i32 %2, -1
  %14 = add i32 %.0.i, %13
  %.sroa.speculated = tail call i32 @llvm.umin.i32(i32 %14, i32 %3)
  %15 = load ptr, ptr %1, align 8
  %.0.i4 = select i1 %12, ptr %15, ptr %1
  %16 = zext i32 %2 to i64
  %17 = getelementptr inbounds nuw i8, ptr %.0.i4, i64 %16
  %18 = zext i32 %.sroa.speculated to i64
  tail call void @llvm.memmove.p0.p0.i64(ptr align 1 %.0.i4, ptr align 1 %17, i64 %18, i1 false)
  %19 = load i8, ptr %5, align 1, !tbaa !38
  %20 = icmp sgt i8 %19, -1
  br i1 %20, label %21, label %25

21:                                               ; preds = %4
  %22 = getelementptr inbounds nuw [24 x i8], ptr %1, i64 0, i64 %18
  store i8 0, ptr %22, align 1, !tbaa !38
  %23 = trunc i32 %.sroa.speculated to i8
  %24 = sub i8 23, %23
  store i8 %24, ptr %5, align 1, !tbaa !38
  br label %_ZN7doctest6String7setSizeEj.exit

25:                                               ; preds = %4
  %26 = load ptr, ptr %1, align 8, !tbaa !38
  %27 = getelementptr inbounds nuw i8, ptr %26, i64 %18
  store i8 0, ptr %27, align 1, !tbaa !38
  store i32 %.sroa.speculated, ptr %10, align 8, !tbaa !38
  br label %_ZN7doctest6String7setSizeEj.exit

_ZN7doctest6String7setSizeEj.exit:                ; preds = %21, %25
  tail call void @llvm.memcpy.p0.p0.i64(ptr noundef nonnull align 8 dereferenceable(24) %0, ptr noundef nonnull align 8 dereferenceable(24) %1, i64 24, i1 false)
  store i8 0, ptr %1, align 8, !tbaa !38
  store i8 23, ptr %5, align 1, !tbaa !38
  ret void
}